target datalayout = "e-m:e-p270:32:32-p271:32:32-p272:64:64-i64:64-i128:128-f80:128-n8:16:32:64-S128"
target triple = "x86_64-pc-linux-gnu"

%"class.gmx::ArrayRef" = type { %"struct.gmx::ArrayRefIter", %"struct.gmx::ArrayRefIter" }
%"struct.gmx::ArrayRefIter" = type { ptr }
%union.t_iparams = type { %struct.anon.21 }
%struct.anon.21 = type { [3 x float], [3 x float], [3 x float], [3 x float] }
%struct.anon.8 = type { float, [5 x float] }

; Function Attrs: mustprogress nounwind uwtable
define linkonce_odr noundef float @_ZSt4sqrtf(float noundef %0) #3 comdat {
  %2 = alloca float, align 4
  store float %0, ptr %2, align 4
  %3 = load float, ptr %2, align 4
  %4 = call float @sqrtf(float noundef %3) #4
  ret float %4
}

; Function Attrs: mustprogress nounwind uwtable
define internal noundef float @_ZL5iprodPKfS0_(ptr noundef %0, ptr noundef %1) #3 {
  %3 = alloca ptr, align 8
  %4 = alloca ptr, align 8
  store ptr %0, ptr %3, align 8
  store ptr %1, ptr %4, align 8
  %5 = load ptr, ptr %3, align 8
  %6 = getelementptr inbounds float, ptr %5, i64 0
  %7 = load float, ptr %6, align 4
  %8 = load ptr, ptr %4, align 8
  %9 = getelementptr inbounds float, ptr %8, i64 0
  %10 = load float, ptr %9, align 4
  %11 = load ptr, ptr %3, align 8
  %12 = getelementptr inbounds float, ptr %11, i64 1
  %13 = load float, ptr %12, align 4
  %14 = load ptr, ptr %4, align 8
  %15 = getelementptr inbounds float, ptr %14, i64 1
  %16 = load float, ptr %15, align 4
  %17 = fmul float %13, %16
  %18 = call float @llvm.fmuladd.f32(float %7, float %10, float %17)
  %19 = load ptr, ptr %3, align 8
  %20 = getelementptr inbounds float, ptr %19, i64 2
  %21 = load float, ptr %20, align 4
  %22 = load ptr, ptr %4, align 8
  %23 = getelementptr inbounds float, ptr %22, i64 2
  %24 = load float, ptr %23, align 4
  %25 = call float @llvm.fmuladd.f32(float %21, float %24, float %18)
  ret float %25
}

; Function Attrs: mustprogress nounwind uwtable
define internal noundef float @_ZN3gmxL7invsqrtEf(float noundef %0) #3 {
  %2 = alloca float, align 4
  store float %0, ptr %2, align 4
  %3 = load float, ptr %2, align 4
  %4 = call noundef float @_ZSt4sqrtf(float noundef %3)
  %5 = fdiv float 1.000000e+00, %4
  ret float %5
}

; Function Attrs: mustprogress nounwind uwtable
define linkonce_odr noundef float @_ZN3gmx6squareIfEET_S1_(float noundef %0) #3 comdat {
  %2 = alloca float, align 4
  store float %0, ptr %2, align 4
  %3 = load float, ptr %2, align 4
  %4 = load float, ptr %2, align 4
  %5 = fmul float %3, %4
  ret float %5
}

; Function Attrs: mustprogress uwtable
define internal noundef float @_ZN12_GLOBAL__N_114quartic_anglesIL18BondedKernelFlavor0EEEfiPKiPK9t_iparamsPA3_KfPA4_fPA3_fPK5t_pbcfPfN3gmx8ArrayRefIS7_EEP8t_fcdataP12t_disresdataP12t_oriresdataPi(i32 noundef %0, ptr noundef %1, ptr noundef %2, ptr noundef %3, ptr noundef %4, ptr noundef %5, ptr noundef %6, float noundef %7, ptr noundef %8, ptr noundef byval(%"class.gmx::ArrayRef") align 8 %9, ptr noundef %10, ptr noundef %11, ptr noundef %12, ptr noundef %13) #2 {
  %15 = alloca i32, align 4
  %16 = alloca ptr, align 8
  %17 = alloca ptr, align 8
  %18 = alloca ptr, align 8
  %19 = alloca ptr, align 8
  %20 = alloca ptr, align 8
  %21 = alloca ptr, align 8
  %22 = alloca float, align 4
  %23 = alloca ptr, align 8
  %24 = alloca ptr, align 8
  %25 = alloca ptr, align 8
  %26 = alloca ptr, align 8
  %27 = alloca ptr, align 8
  %28 = alloca i32, align 4
  %29 = alloca i32, align 4
  %30 = alloca i32, align 4
  %31 = alloca i32, align 4
  %32 = alloca i32, align 4
  %33 = alloca i32, align 4
  %34 = alloca i32, align 4
  %35 = alloca i32, align 4
  %36 = alloca [3 x float], align 4
  %37 = alloca [3 x float], align 4
  %38 = alloca float, align 4
  %39 = alloca float, align 4
  %40 = alloca float, align 4
  %41 = alloca float, align 4
  %42 = alloca float, align 4
  %43 = alloca float, align 4
  %44 = alloca float, align 4
  %45 = alloca float, align 4
  %46 = alloca float, align 4
  %47 = alloca i32, align 4
  %48 = alloca float, align 4
  %49 = alloca float, align 4
  %50 = alloca float, align 4
  %51 = alloca float, align 4
  %52 = alloca float, align 4
  %53 = alloca float, align 4
  %54 = alloca float, align 4
  %55 = alloca [3 x float], align 4
  %56 = alloca [3 x float], align 4
  %57 = alloca [3 x float], align 4
  store i32 %0, ptr %15, align 4
  store ptr %1, ptr %16, align 8
  store ptr %2, ptr %17, align 8
  store ptr %3, ptr %18, align 8
  store ptr %4, ptr %19, align 8
  store ptr %5, ptr %20, align 8
  store ptr %6, ptr %21, align 8
  store float %7, ptr %22, align 4
  store ptr %8, ptr %23, align 8
  store ptr %10, ptr %24, align 8
  store ptr %11, ptr %25, align 8
  store ptr %12, ptr %26, align 8
  store ptr %13, ptr %27, align 8
  store float 0.000000e+00, ptr %46, align 4
  store i32 0, ptr %28, align 4
  br label %58

58:                                               ; preds = %285, %14
  %59 = load i32, ptr %28, align 4
  %60 = load i32, ptr %15, align 4
  %61 = icmp slt i32 %59, %60
  br i1 %61, label %62, label %286

62:                                               ; preds = %58
  %63 = load ptr, ptr %16, align 8
  %64 = load i32, ptr %28, align 4
  %65 = add nsw i32 %64, 1
  store i32 %65, ptr %28, align 4
  %66 = sext i32 %64 to i64
  %67 = getelementptr inbounds i32, ptr %63, i64 %66
  %68 = load i32, ptr %67, align 4
  store i32 %68, ptr %35, align 4
  %69 = load ptr, ptr %16, align 8
  %70 = load i32, ptr %28, align 4
  %71 = add nsw i32 %70, 1
  store i32 %71, ptr %28, align 4
  %72 = sext i32 %70 to i64
  %73 = getelementptr inbounds i32, ptr %69, i64 %72
  %74 = load i32, ptr %73, align 4
  store i32 %74, ptr %30, align 4
  %75 = load ptr, ptr %16, align 8
  %76 = load i32, ptr %28, align 4
  %77 = add nsw i32 %76, 1
  store i32 %77, ptr %28, align 4
  %78 = sext i32 %76 to i64
  %79 = getelementptr inbounds i32, ptr %75, i64 %78
  %80 = load i32, ptr %79, align 4
  store i32 %80, ptr %31, align 4
  %81 = load ptr, ptr %16, align 8
  %82 = load i32, ptr %28, align 4
  %83 = add nsw i32 %82, 1
  store i32 %83, ptr %28, align 4
  %84 = sext i32 %82 to i64
  %85 = getelementptr inbounds i32, ptr %81, i64 %84
  %86 = load i32, ptr %85, align 4
  store i32 %86, ptr %32, align 4
  %87 = load ptr, ptr %18, align 8
  %88 = load i32, ptr %30, align 4
  %89 = sext i32 %88 to i64
  %90 = getelementptr inbounds [3 x float], ptr %87, i64 %89
  %91 = getelementptr inbounds [3 x float], ptr %90, i64 0, i64 0
  %92 = load ptr, ptr %18, align 8
  %93 = load i32, ptr %31, align 4
  %94 = sext i32 %93 to i64
  %95 = getelementptr inbounds [3 x float], ptr %92, i64 %94
  %96 = getelementptr inbounds [3 x float], ptr %95, i64 0, i64 0
  %97 = load ptr, ptr %18, align 8
  %98 = load i32, ptr %32, align 4
  %99 = sext i32 %98 to i64
  %100 = getelementptr inbounds [3 x float], ptr %97, i64 %99
  %101 = getelementptr inbounds [3 x float], ptr %100, i64 0, i64 0
  %102 = load ptr, ptr %21, align 8
  %103 = getelementptr inbounds [3 x float], ptr %36, i64 0, i64 0
  %104 = getelementptr inbounds [3 x float], ptr %37, i64 0, i64 0
  %105 = call noundef float @_Z10bond_anglePKfS0_S0_PK5t_pbcPfS4_S4_PiS5_(ptr noundef %91, ptr noundef %96, ptr noundef %101, ptr noundef %102, ptr noundef %103, ptr noundef %104, ptr noundef %38, ptr noundef %33, ptr noundef %34)
  store float %105, ptr %40, align 4
  %106 = load float, ptr %40, align 4
  %107 = fpext float %106 to double
  %108 = load ptr, ptr %17, align 8
  %109 = load i32, ptr %35, align 4
  %110 = sext i32 %109 to i64
  %111 = getelementptr inbounds %union.t_iparams, ptr %108, i64 %110
  %112 = getelementptr inbounds %struct.anon.8, ptr %111, i32 0, i32 0
  %113 = load float, ptr %112, align 4
  %114 = fpext float %113 to double
  %115 = fneg double %114
  %116 = call double @llvm.fmuladd.f64(double %115, double 0x3F91DF46A2529D39, double %107)
  %117 = fptrunc double %116 to float
  store float %117, ptr %41, align 4
  store float 0.000000e+00, ptr %42, align 4
  %118 = load ptr, ptr %17, align 8
  %119 = load i32, ptr %35, align 4
  %120 = sext i32 %119 to i64
  %121 = getelementptr inbounds %union.t_iparams, ptr %118, i64 %120
  %122 = getelementptr inbounds %struct.anon.8, ptr %121, i32 0, i32 1
  %123 = getelementptr inbounds [5 x float], ptr %122, i64 0, i64 0
  %124 = load float, ptr %123, align 4
  store float %124, ptr %43, align 4
  store float 1.000000e+00, ptr %44, align 4
  store i32 1, ptr %29, align 4
  br label %125

125:                                              ; preds = %153, %62
  %126 = load i32, ptr %29, align 4
  %127 = icmp sle i32 %126, 4
  br i1 %127, label %128, label %156

128:                                              ; preds = %125
  %129 = load ptr, ptr %17, align 8
  %130 = load i32, ptr %35, align 4
  %131 = sext i32 %130 to i64
  %132 = getelementptr inbounds %union.t_iparams, ptr %129, i64 %131
  %133 = getelementptr inbounds %struct.anon.8, ptr %132, i32 0, i32 1
  %134 = load i32, ptr %29, align 4
  %135 = sext i32 %134 to i64
  %136 = getelementptr inbounds [5 x float], ptr %133, i64 0, i64 %135
  %137 = load float, ptr %136, align 4
  store float %137, ptr %45, align 4
  %138 = load i32, ptr %29, align 4
  %139 = sitofp i32 %138 to float
  %140 = load float, ptr %45, align 4
  %141 = fmul float %139, %140
  %142 = load float, ptr %44, align 4
  %143 = load float, ptr %42, align 4
  %144 = fneg float %141
  %145 = call float @llvm.fmuladd.f32(float %144, float %142, float %143)
  store float %145, ptr %42, align 4
  %146 = load float, ptr %41, align 4
  %147 = load float, ptr %44, align 4
  %148 = fmul float %147, %146
  store float %148, ptr %44, align 4
  %149 = load float, ptr %45, align 4
  %150 = load float, ptr %44, align 4
  %151 = load float, ptr %43, align 4
  %152 = call float @llvm.fmuladd.f32(float %149, float %150, float %151)
  store float %152, ptr %43, align 4
  br label %153

153:                                              ; preds = %128
  %154 = load i32, ptr %29, align 4
  %155 = add nsw i32 %154, 1
  store i32 %155, ptr %29, align 4
  br label %125, !llvm.loop !37

156:                                              ; preds = %125
  %157 = load float, ptr %43, align 4
  %158 = load float, ptr %46, align 4
  %159 = fadd float %158, %157
  store float %159, ptr %46, align 4
  %160 = load float, ptr %38, align 4
  %161 = call noundef float @_ZN3gmx6squareIfEET_S1_(float noundef %160)
  store float %161, ptr %39, align 4
  %162 = load float, ptr %39, align 4
  %163 = fcmp olt float %162, 1.000000e+00
  br i1 %163, label %164, label %285

164:                                              ; preds = %156
  %165 = load float, ptr %42, align 4
  %166 = load float, ptr %39, align 4
  %167 = fsub float 1.000000e+00, %166
  %168 = call noundef float @_ZN3gmxL7invsqrtEf(float noundef %167)
  %169 = fmul float %165, %168
  store float %169, ptr %48, align 4
  %170 = load float, ptr %48, align 4
  %171 = load float, ptr %38, align 4
  %172 = fmul float %170, %171
  store float %172, ptr %49, align 4
  %173 = getelementptr inbounds [3 x float], ptr %37, i64 0, i64 0
  %174 = getelementptr inbounds [3 x float], ptr %37, i64 0, i64 0
  %175 = call noundef float @_ZL5iprodPKfS0_(ptr noundef %173, ptr noundef %174)
  store float %175, ptr %53, align 4
  %176 = getelementptr inbounds [3 x float], ptr %36, i64 0, i64 0
  %177 = getelementptr inbounds [3 x float], ptr %36, i64 0, i64 0
  %178 = call noundef float @_ZL5iprodPKfS0_(ptr noundef %176, ptr noundef %177)
  store float %178, ptr %54, align 4
  %179 = load float, ptr %48, align 4
  %180 = load float, ptr %53, align 4
  %181 = load float, ptr %54, align 4
  %182 = fmul float %180, %181
  %183 = call noundef float @_ZN3gmxL7invsqrtEf(float noundef %182)
  %184 = fmul float %179, %183
  store float %184, ptr %50, align 4
  %185 = load float, ptr %49, align 4
  %186 = load float, ptr %54, align 4
  %187 = fdiv float %185, %186
  store float %187, ptr %51, align 4
  %188 = load float, ptr %49, align 4
  %189 = load float, ptr %53, align 4
  %190 = fdiv float %188, %189
  store float %190, ptr %52, align 4
  store i32 0, ptr %47, align 4
  br label %191

191:                                              ; preds = %281, %164
  %192 = load i32, ptr %47, align 4
  %193 = icmp slt i32 %192, 3
  br i1 %193, label %194, label %284

194:                                              ; preds = %191
  %195 = load float, ptr %50, align 4
  %196 = load i32, ptr %47, align 4
  %197 = sext i32 %196 to i64
  %198 = getelementptr inbounds [3 x float], ptr %37, i64 0, i64 %197
  %199 = load float, ptr %198, align 4
  %200 = load float, ptr %51, align 4
  %201 = load i32, ptr %47, align 4
  %202 = sext i32 %201 to i64
  %203 = getelementptr inbounds [3 x float], ptr %36, i64 0, i64 %202
  %204 = load float, ptr %203, align 4
  %205 = fmul float %200, %204
  %206 = fneg float %205
  %207 = call float @llvm.fmuladd.f32(float %195, float %199, float %206)
  %208 = fneg float %207
  %209 = load i32, ptr %47, align 4
  %210 = sext i32 %209 to i64
  %211 = getelementptr inbounds [3 x float], ptr %55, i64 0, i64 %210
  store float %208, ptr %211, align 4
  %212 = load float, ptr %50, align 4
  %213 = load i32, ptr %47, align 4
  %214 = sext i32 %213 to i64
  %215 = getelementptr inbounds [3 x float], ptr %36, i64 0, i64 %214
  %216 = load float, ptr %215, align 4
  %217 = load float, ptr %52, align 4
  %218 = load i32, ptr %47, align 4
  %219 = sext i32 %218 to i64
  %220 = getelementptr inbounds [3 x float], ptr %37, i64 0, i64 %219
  %221 = load float, ptr %220, align 4
  %222 = fmul float %217, %221
  %223 = fneg float %222
  %224 = call float @llvm.fmuladd.f32(float %212, float %216, float %223)
  %225 = fneg float %224
  %226 = load i32, ptr %47, align 4
  %227 = sext i32 %226 to i64
  %228 = getelementptr inbounds [3 x float], ptr %57, i64 0, i64 %227
  store float %225, ptr %228, align 4
  %229 = load i32, ptr %47, align 4
  %230 = sext i32 %229 to i64
  %231 = getelementptr inbounds [3 x float], ptr %55, i64 0, i64 %230
  %232 = load float, ptr %231, align 4
  %233 = fneg float %232
  %234 = load i32, ptr %47, align 4
  %235 = sext i32 %234 to i64
  %236 = getelementptr inbounds [3 x float], ptr %57, i64 0, i64 %235
  %237 = load float, ptr %236, align 4
  %238 = fsub float %233, %237
  %239 = load i32, ptr %47, align 4
  %240 = sext i32 %239 to i64
  %241 = getelementptr inbounds [3 x float], ptr %56, i64 0, i64 %240
  store float %238, ptr %241, align 4
  %242 = load i32, ptr %47, align 4
  %243 = sext i32 %242 to i64
  %244 = getelementptr inbounds [3 x float], ptr %55, i64 0, i64 %243
  %245 = load float, ptr %244, align 4
  %246 = load ptr, ptr %19, align 8
  %247 = load i32, ptr %30, align 4
  %248 = sext i32 %247 to i64
  %249 = getelementptr inbounds [4 x float], ptr %246, i64 %248
  %250 = load i32, ptr %47, align 4
  %251 = sext i32 %250 to i64
  %252 = getelementptr inbounds [4 x float], ptr %249, i64 0, i64 %251
  %253 = load float, ptr %252, align 4
  %254 = fadd float %253, %245
  store float %254, ptr %252, align 4
  %255 = load i32, ptr %47, align 4
  %256 = sext i32 %255 to i64
  %257 = getelementptr inbounds [3 x float], ptr %56, i64 0, i64 %256
  %258 = load float, ptr %257, align 4
  %259 = load ptr, ptr %19, align 8
  %260 = load i32, ptr %31, align 4
  %261 = sext i32 %260 to i64
  %262 = getelementptr inbounds [4 x float], ptr %259, i64 %261
  %263 = load i32, ptr %47, align 4
  %264 = sext i32 %263 to i64
  %265 = getelementptr inbounds [4 x float], ptr %262, i64 0, i64 %264
  %266 = load float, ptr %265, align 4
  %267 = fadd float %266, %258
  store float %267, ptr %265, align 4
  %268 = load i32, ptr %47, align 4
  %269 = sext i32 %268 to i64
  %270 = getelementptr inbounds [3 x float], ptr %57, i64 0, i64 %269
  %271 = load float, ptr %270, align 4
  %272 = load ptr, ptr %19, align 8
  %273 = load i32, ptr %32, align 4
  %274 = sext i32 %273 to i64
  %275 = getelementptr inbounds [4 x float], ptr %272, i64 %274
  %276 = load i32, ptr %47, align 4
  %277 = sext i32 %276 to i64
  %278 = getelementptr inbounds [4 x float], ptr %275, i64 0, i64 %277
  %279 = load float, ptr %278, align 4
  %280 = fadd float %279, %271
  store float %280, ptr %278, align 4
  br label %281

281:                                              ; preds = %194
  %282 = load i32, ptr %47, align 4
  %283 = add nsw i32 %282, 1
  store i32 %283, ptr %47, align 4
  br label %191, !llvm.loop !38

284:                                              ; preds = %191
  br label %285

285:                                              ; preds = %284, %156
  br label %58, !llvm.loop !39

286:                                              ; preds = %58
  %287 = load float, ptr %46, align 4
  ret float %287
}