; Function Attrs: mustprogress uwtable
define internal noundef float @_ZN12_GLOBAL__N_114quartic_anglesIL18BondedKernelFlavor0EEEfiPKiPK9t_iparamsPA3_KfPA4_fPA3_fPK5t_pbcfPfN3gmx8ArrayRefIS7_EEP8t_fcdataP12t_disresdataP12t_oriresdataPi(i32 noundef %0, ptr nocapture noundef readonly %1, ptr nocapture noundef readonly %2, ptr noundef %3, ptr nocapture noundef %4, ptr nocapture readnone %5, ptr noundef %6, float %7, ptr nocapture readnone %8, ptr nocapture noundef readnone byval(%"class.gmx::ArrayRef") align 8 %9, ptr nocapture readnone %10, ptr nocapture readnone %11, ptr nocapture readnone %12, ptr nocapture readnone %13) #4 {
  %15 = alloca i32, align 4
  %16 = alloca i32, align 4
  %17 = alloca [3 x float], align 4
  %18 = alloca [3 x float], align 4
  %19 = alloca float, align 4
  %20 = icmp sgt i32 %0, 0
  br i1 %20, label %.lr.ph, label %._crit_edge

.lr.ph:                                           ; preds = %14
  %21 = getelementptr inbounds i8, ptr %18, i64 4
  %22 = getelementptr inbounds i8, ptr %18, i64 8
  %23 = getelementptr inbounds i8, ptr %17, i64 4
  %24 = getelementptr inbounds i8, ptr %17, i64 8
  br label %25

25:                                               ; preds = %.lr.ph, %.loopexit
  %indvars.iv97 = phi i64 [ 0, %.lr.ph ], [ %indvars.iv.next98, %.loopexit ]
  %.08088 = phi float [ 0.000000e+00, %.lr.ph ], [ %63, %.loopexit ]
  %26 = getelementptr inbounds i32, ptr %1, i64 %indvars.iv97
  %27 = load i32, ptr %26, align 4
  %28 = getelementptr i8, ptr %26, i64 4
  %29 = load i32, ptr %28, align 4
  %30 = or disjoint i64 %indvars.iv97, 3
  %31 = getelementptr i8, ptr %26, i64 8
  %32 = load i32, ptr %31, align 4
  %33 = getelementptr inbounds i32, ptr %1, i64 %30
  %34 = load i32, ptr %33, align 4
  %35 = sext i32 %29 to i64
  %36 = getelementptr inbounds [3 x float], ptr %3, i64 %35
  %37 = sext i32 %32 to i64
  %38 = getelementptr inbounds [3 x float], ptr %3, i64 %37
  %39 = sext i32 %34 to i64
  %40 = getelementptr inbounds [3 x float], ptr %3, i64 %39
  %41 = call noundef float @_Z10bond_anglePKfS0_S0_PK5t_pbcPfS4_S4_PiS5_(ptr noundef %36, ptr noundef %38, ptr noundef %40, ptr noundef %6, ptr noundef nonnull %17, ptr noundef nonnull %18, ptr noundef nonnull %19, ptr noundef nonnull %15, ptr noundef nonnull %16)
  %42 = fpext float %41 to double
  %43 = sext i32 %27 to i64
  %44 = getelementptr inbounds %union.t_iparams, ptr %2, i64 %43
  %45 = load float, ptr %44, align 4
  %46 = fpext float %45 to double
  %47 = fneg double %46
  %48 = call double @llvm.fmuladd.f64(double %47, double 0x3F91DF46A2529D39, double %42)
  %49 = fptrunc double %48 to float
  %50 = getelementptr inbounds i8, ptr %44, i64 4
  %51 = load float, ptr %50, align 4
  br label %52

52:                                               ; preds = %25, %52
  %indvars.iv = phi i64 [ 1, %25 ], [ %indvars.iv.next, %52 ]
  %.07785 = phi float [ 0.000000e+00, %25 ], [ %59, %52 ]
  %.07884 = phi float [ %51, %25 ], [ %61, %52 ]
  %.07983 = phi float [ 1.000000e+00, %25 ], [ %60, %52 ]
  %53 = getelementptr inbounds [5 x float], ptr %50, i64 0, i64 %indvars.iv
  %54 = load float, ptr %53, align 4
  %55 = trunc nuw nsw i64 %indvars.iv to i32
  %56 = uitofp nneg i32 %55 to float
  %57 = fneg float %54
  %58 = fmul float %56, %57
  %59 = call float @llvm.fmuladd.f32(float %58, float %.07983, float %.07785)
  %60 = fmul float %.07983, %49
  %61 = call float @llvm.fmuladd.f32(float %54, float %60, float %.07884)
  %indvars.iv.next = add nuw nsw i64 %indvars.iv, 1
  %exitcond.not = icmp eq i64 %indvars.iv.next, 5
  br i1 %exitcond.not, label %62, label %52, !llvm.loop !38

62:                                               ; preds = %52
  %indvars.iv.next98 = add nuw nsw i64 %indvars.iv97, 4
  %63 = fadd float %.08088, %61
  %64 = load float, ptr %19, align 4
  %65 = fmul float %64, %64
  %66 = fcmp olt float %65, 1.000000e+00
  br i1 %66, label %67, label %.loopexit

67:                                               ; preds = %62
  %68 = fsub float 1.000000e+00, %65
  %69 = call noundef float @sqrtf(float noundef %68) #22
  %70 = fdiv float 1.000000e+00, %69
  %71 = fmul float %59, %70
  %72 = load float, ptr %18, align 4
  %73 = load float, ptr %21, align 4
  %74 = fmul float %73, %73
  %75 = call float @llvm.fmuladd.f32(float %72, float %72, float %74)
  %76 = load float, ptr %22, align 4
  %77 = call noundef float @llvm.fmuladd.f32(float %76, float %76, float %75)
  %78 = load float, ptr %17, align 4
  %79 = load float, ptr %23, align 4
  %80 = fmul float %79, %79
  %81 = call float @llvm.fmuladd.f32(float %78, float %78, float %80)
  %82 = load float, ptr %24, align 4
  %83 = call noundef float @llvm.fmuladd.f32(float %82, float %82, float %81)
  %84 = fmul float %77, %83
  %85 = call noundef float @sqrtf(float noundef %84) #22
  %86 = fdiv float 1.000000e+00, %85
  %87 = fmul float %71, %86
  %88 = fneg float %71
  %89 = fmul float %64, %88
  %90 = fdiv float %89, %83
  %91 = fdiv float %89, %77
  br label %92

92:                                               ; preds = %67, %92
  %indvars.iv93 = phi i64 [ 0, %67 ], [ %indvars.iv.next94, %92 ]
  %93 = getelementptr inbounds [3 x float], ptr %18, i64 0, i64 %indvars.iv93
  %94 = load float, ptr %93, align 4
  %95 = getelementptr inbounds [3 x float], ptr %17, i64 0, i64 %indvars.iv93
  %96 = load float, ptr %95, align 4
  %97 = fmul float %90, %96
  %98 = call float @llvm.fmuladd.f32(float %87, float %94, float %97)
  %99 = fmul float %91, %94
  %100 = call float @llvm.fmuladd.f32(float %87, float %96, float %99)
  %101 = fadd float %100, %98
  %102 = getelementptr inbounds [4 x float], ptr %4, i64 %35, i64 %indvars.iv93
  %103 = load float, ptr %102, align 4
  %104 = fsub float %103, %98
  store float %104, ptr %102, align 4
  %105 = getelementptr inbounds [4 x float], ptr %4, i64 %37, i64 %indvars.iv93
  %106 = load float, ptr %105, align 4
  %107 = fadd float %106, %101
  store float %107, ptr %105, align 4
  %108 = getelementptr inbounds [4 x float], ptr %4, i64 %39, i64 %indvars.iv93
  %109 = load float, ptr %108, align 4
  %110 = fsub float %109, %100
  store float %110, ptr %108, align 4
  %indvars.iv.next94 = add nuw nsw i64 %indvars.iv93, 1
  %exitcond96.not = icmp eq i64 %indvars.iv.next94, 3
  br i1 %exitcond96.not, label %.loopexit, label %92, !llvm.loop !39

.loopexit:                                        ; preds = %92, %62
  %111 = trunc nuw i64 %indvars.iv.next98 to i32
  %112 = icmp slt i32 %111, %0
  br i1 %112, label %25, label %._crit_edge, !llvm.loop !40

._crit_edge:                                      ; preds = %.loopexit, %14
  %.080.lcssa = phi float [ 0.000000e+00, %14 ], [ %63, %.loopexit ]
  ret float %.080.lcssa
}